; Function Attrs: mustprogress nounwind uwtable
define hidden void @_ZN13LIR_Assembler28add_debug_info_for_div0_hereEP12CodeEmitInfo(ptr nocapture noundef nonnull align 8 dereferenceable(96) %0, ptr noundef %1) local_unnamed_addr #0 align 2 {
  %3 = load ptr, ptr %0, align 8
  %4 = getelementptr inbounds i8, ptr %3, i64 8
  %5 = load ptr, ptr %4, align 8
  %6 = getelementptr inbounds i8, ptr %5, i64 16
  %7 = load ptr, ptr %6, align 8
  %8 = load ptr, ptr %5, align 8
  %9 = ptrtoint ptr %7 to i64
  %10 = ptrtoint ptr %8 to i64
  %11 = sub i64 %9, %10
  %12 = trunc i64 %11 to i32
  tail call void @_ZN13LIR_Assembler23add_debug_info_for_div0EiP12CodeEmitInfo(ptr noundef nonnull align 8 dereferenceable(96) %0, i32 noundef %12, ptr noundef %1)
  ret void
}